; Function Attrs: mustprogress uwtable
define void @_ZN3gmx15OptionsAssigner5startEv(ptr noundef nonnull readonly align 8 captures(none) dereferenceable(8) %0) local_unnamed_addr #0 align 2 {
  %2 = load ptr, ptr %0, align 8, !tbaa !32
  %3 = load ptr, ptr %2, align 8, !tbaa !34
  %4 = getelementptr inbounds nuw i8, ptr %3, i64 8
  %5 = load ptr, ptr %4, align 8, !tbaa !19
  %6 = getelementptr inbounds nuw i8, ptr %5, i64 24
  tail call void @_ZN3gmx8internal17OptionSectionImpl5startEv(ptr noundef nonnull align 8 dereferenceable(201) %6)
  ret void
}